target datalayout = "e-m:e-p270:32:32-p271:32:32-p272:64:64-i64:64-i128:128-f80:128-n8:16:32:64-S128"
target triple = "x86_64-unknown-linux-gnu"

%"class.std::__cxx11::basic_string" = type { %"struct.std::__cxx11::basic_string<char>::_Alloc_hider", i64, %union.anon }
%"struct.std::__cxx11::basic_string<char>::_Alloc_hider" = type { ptr }
%union.anon = type { i64, [8 x i8] }
%"class.Imf_3_2::(anonymous namespace)::PtrIStream" = type { %"class.Imf_3_2::IStream", ptr, ptr, ptr }
%"class.Imf_3_2::IStream" = type { ptr, %"class.std::__cxx11::basic_string" }
%"class.std::__cxx11::basic_stringstream" = type { %"class.std::basic_iostream.base", %"class.std::__cxx11::basic_stringbuf", %"class.std::basic_ios" }
%"class.std::basic_iostream.base" = type { %"class.std::basic_istream.base", %"class.std::basic_ostream.base" }
%"class.std::basic_istream.base" = type { ptr, i64 }
%"class.std::basic_ostream.base" = type { ptr }
%"class.std::__cxx11::basic_stringbuf" = type { %"class.std::basic_streambuf", i32, %"class.std::__cxx11::basic_string" }
%"class.std::basic_streambuf" = type { ptr, ptr, ptr, ptr, ptr, ptr, ptr, %"class.std::locale" }
%"class.std::locale" = type { ptr }
%"class.std::basic_ios" = type { %"class.std::ios_base", ptr, i8, i8, ptr, ptr, ptr, ptr }
%"class.std::ios_base" = type { ptr, i64, i64, i32, i32, i32, ptr, %"struct.std::ios_base::_Words", [8 x %"struct.std::ios_base::_Words"], i32, ptr, %"class.std::locale" }
%"struct.std::ios_base::_Words" = type { ptr, i64 }

@.str.14 = private unnamed_addr constant [29 x i8] c" bytes requested from stream\00", align 1
@_ZTIN7Iex_3_28InputExcE = external constant ptr
@.str.15 = private unnamed_addr constant [31 x i8] c"Early end of file: requesting \00", align 1
@.str.16 = private unnamed_addr constant [25 x i8] c" extra bytes after file\0A\00", align 1

; Function Attrs: mustprogress uwtable
define internal noundef zeroext i1 @_ZN7Imf_3_212_GLOBAL__N_110PtrIStream4readEPci(ptr noundef nonnull align 8 dereferenceable(64) %this, ptr noundef %c, i32 noundef %n) unnamed_addr #4 align 2 personality ptr @__gxx_personality_v0 {
entry:
  %this.addr = alloca ptr, align 8
  %c.addr = alloca ptr, align 8
  %n.addr = alloca i32, align 4
  %_iex_throw_s = alloca %"class.std::__cxx11::basic_stringstream", align 8
  %exn.slot = alloca ptr, align 8
  %ehselector.slot = alloca i32, align 4
  %_iex_throw_s10 = alloca %"class.std::__cxx11::basic_stringstream", align 8
  store ptr %this, ptr %this.addr, align 8
  store ptr %c, ptr %c.addr, align 8
  store i32 %n, ptr %n.addr, align 4
  %this1 = load ptr, ptr %this.addr, align 8
  %0 = load i32, ptr %n.addr, align 4
  %cmp = icmp slt i32 %0, 0
  br i1 %cmp, label %if.then, label %if.end

if.then:                                          ; preds = %entry
  br label %do.body

do.body:                                          ; preds = %if.then
  call void @_Z13iex_debugTrapv()
  call void @_ZNSt7__cxx1118basic_stringstreamIcSt11char_traitsIcESaIcEEC1Ev(ptr noundef nonnull align 8 dereferenceable(128) %_iex_throw_s)
  %add.ptr = getelementptr inbounds i8, ptr %_iex_throw_s, i64 16
  %1 = load i32, ptr %n.addr, align 4
  %call = invoke noundef nonnull align 8 dereferenceable(8) ptr @_ZNSolsEi(ptr noundef nonnull align 8 dereferenceable(8) %add.ptr, i32 noundef %1)
          to label %invoke.cont unwind label %lpad

invoke.cont:                                      ; preds = %do.body
  %call3 = invoke noundef nonnull align 8 dereferenceable(8) ptr @_ZStlsISt11char_traitsIcEERSt13basic_ostreamIcT_ES5_PKc(ptr noundef nonnull align 8 dereferenceable(8) %call, ptr noundef @.str.14)
          to label %invoke.cont2 unwind label %lpad

invoke.cont2:                                     ; preds = %invoke.cont
  %exception = call ptr @__cxa_allocate_exception(i64 72) #3
  invoke void @_ZN7Iex_3_28InputExcC1ERNSt7__cxx1118basic_stringstreamIcSt11char_traitsIcESaIcEEE(ptr noundef nonnull align 8 dereferenceable(72) %exception, ptr noundef nonnull align 8 dereferenceable(128) %_iex_throw_s)
          to label %invoke.cont5 unwind label %lpad4

invoke.cont5:                                     ; preds = %invoke.cont2
  invoke void @__cxa_throw(ptr %exception, ptr @_ZTIN7Iex_3_28InputExcE, ptr @_ZN7Iex_3_28InputExcD1Ev) #14
          to label %unreachable unwind label %lpad

lpad:                                             ; preds = %invoke.cont5, %invoke.cont, %do.body
  %2 = landingpad { ptr, i32 }
          cleanup
  %3 = extractvalue { ptr, i32 } %2, 0
  store ptr %3, ptr %exn.slot, align 8
  %4 = extractvalue { ptr, i32 } %2, 1
  store i32 %4, ptr %ehselector.slot, align 4
  br label %ehcleanup

lpad4:                                            ; preds = %invoke.cont2
  %5 = landingpad { ptr, i32 }
          cleanup
  %6 = extractvalue { ptr, i32 } %5, 0
  store ptr %6, ptr %exn.slot, align 8
  %7 = extractvalue { ptr, i32 } %5, 1
  store i32 %7, ptr %ehselector.slot, align 4
  call void @__cxa_free_exception(ptr %exception) #3
  br label %ehcleanup

ehcleanup:                                        ; preds = %lpad4, %lpad
  call void @_ZNSt7__cxx1118basic_stringstreamIcSt11char_traitsIcESaIcEED1Ev(ptr noundef nonnull align 8 dereferenceable(128) %_iex_throw_s) #3
  br label %eh.resume

do.end:                                           ; No predecessors!
  br label %if.end

if.end:                                           ; preds = %do.end, %entry
  %8 = load i32, ptr %n.addr, align 4
  %current = getelementptr inbounds %"class.Imf_3_2::(anonymous namespace)::PtrIStream", ptr %this1, i32 0, i32 2
  %9 = load ptr, ptr %current, align 8
  %idx.ext = sext i32 %8 to i64
  %add.ptr6 = getelementptr inbounds i8, ptr %9, i64 %idx.ext
  %end = getelementptr inbounds %"class.Imf_3_2::(anonymous namespace)::PtrIStream", ptr %this1, i32 0, i32 3
  %10 = load ptr, ptr %end, align 8
  %cmp7 = icmp ugt ptr %add.ptr6, %10
  br i1 %cmp7, label %if.then8, label %if.end29

if.then8:                                         ; preds = %if.end
  br label %do.body9

do.body9:                                         ; preds = %if.then8
  call void @_Z13iex_debugTrapv()
  call void @_ZNSt7__cxx1118basic_stringstreamIcSt11char_traitsIcESaIcEEC1Ev(ptr noundef nonnull align 8 dereferenceable(128) %_iex_throw_s10)
  %add.ptr11 = getelementptr inbounds i8, ptr %_iex_throw_s10, i64 16
  %call14 = invoke noundef nonnull align 8 dereferenceable(8) ptr @_ZStlsISt11char_traitsIcEERSt13basic_ostreamIcT_ES5_PKc(ptr noundef nonnull align 8 dereferenceable(8) %add.ptr11, ptr noundef @.str.15)
          to label %invoke.cont13 unwind label %lpad12

invoke.cont13:                                    ; preds = %do.body9
  %end15 = getelementptr inbounds %"class.Imf_3_2::(anonymous namespace)::PtrIStream", ptr %this1, i32 0, i32 3
  %11 = load ptr, ptr %end15, align 8
  %12 = load i32, ptr %n.addr, align 4
  %current16 = getelementptr inbounds %"class.Imf_3_2::(anonymous namespace)::PtrIStream", ptr %this1, i32 0, i32 2
  %13 = load ptr, ptr %current16, align 8
  %idx.ext17 = sext i32 %12 to i64
  %add.ptr18 = getelementptr inbounds i8, ptr %13, i64 %idx.ext17
  %sub.ptr.lhs.cast = ptrtoint ptr %11 to i64
  %sub.ptr.rhs.cast = ptrtoint ptr %add.ptr18 to i64
  %sub.ptr.sub = sub i64 %sub.ptr.lhs.cast, %sub.ptr.rhs.cast
  %call20 = invoke noundef nonnull align 8 dereferenceable(8) ptr @_ZNSolsEl(ptr noundef nonnull align 8 dereferenceable(8) %call14, i64 noundef %sub.ptr.sub)
          to label %invoke.cont19 unwind label %lpad12

invoke.cont19:                                    ; preds = %invoke.cont13
  %call22 = invoke noundef nonnull align 8 dereferenceable(8) ptr @_ZStlsISt11char_traitsIcEERSt13basic_ostreamIcT_ES5_PKc(ptr noundef nonnull align 8 dereferenceable(8) %call20, ptr noundef @.str.16)
          to label %invoke.cont21 unwind label %lpad12

invoke.cont21:                                    ; preds = %invoke.cont19
  %exception23 = call ptr @__cxa_allocate_exception(i64 72) #3
  invoke void @_ZN7Iex_3_28InputExcC1ERNSt7__cxx1118basic_stringstreamIcSt11char_traitsIcESaIcEEE(ptr noundef nonnull align 8 dereferenceable(72) %exception23, ptr noundef nonnull align 8 dereferenceable(128) %_iex_throw_s10)
          to label %invoke.cont25 unwind label %lpad24

invoke.cont25:                                    ; preds = %invoke.cont21
  invoke void @__cxa_throw(ptr %exception23, ptr @_ZTIN7Iex_3_28InputExcE, ptr @_ZN7Iex_3_28InputExcD1Ev) #14
          to label %unreachable unwind label %lpad12

lpad12:                                           ; preds = %invoke.cont25, %invoke.cont19, %invoke.cont13, %do.body9
  %14 = landingpad { ptr, i32 }
          cleanup
  %15 = extractvalue { ptr, i32 } %14, 0
  store ptr %15, ptr %exn.slot, align 8
  %16 = extractvalue { ptr, i32 } %14, 1
  store i32 %16, ptr %ehselector.slot, align 4
  br label %ehcleanup27

lpad24:                                           ; preds = %invoke.cont21
  %17 = landingpad { ptr, i32 }
          cleanup
  %18 = extractvalue { ptr, i32 } %17, 0
  store ptr %18, ptr %exn.slot, align 8
  %19 = extractvalue { ptr, i32 } %17, 1
  store i32 %19, ptr %ehselector.slot, align 4
  call void @__cxa_free_exception(ptr %exception23) #3
  br label %ehcleanup27

ehcleanup27:                                      ; preds = %lpad24, %lpad12
  call void @_ZNSt7__cxx1118basic_stringstreamIcSt11char_traitsIcESaIcEED1Ev(ptr noundef nonnull align 8 dereferenceable(128) %_iex_throw_s10) #3
  br label %eh.resume

do.end28:                                         ; No predecessors!
  br label %if.end29

if.end29:                                         ; preds = %do.end28, %if.end
  %20 = load ptr, ptr %c.addr, align 8
  %current30 = getelementptr inbounds %"class.Imf_3_2::(anonymous namespace)::PtrIStream", ptr %this1, i32 0, i32 2
  %21 = load ptr, ptr %current30, align 8
  %22 = load i32, ptr %n.addr, align 4
  %conv = sext i32 %22 to i64
  call void @llvm.memcpy.p0.p0.i64(ptr align 1 %20, ptr align 1 %21, i64 %conv, i1 false)
  %23 = load i32, ptr %n.addr, align 4
  %current31 = getelementptr inbounds %"class.Imf_3_2::(anonymous namespace)::PtrIStream", ptr %this1, i32 0, i32 2
  %24 = load ptr, ptr %current31, align 8
  %idx.ext32 = sext i32 %23 to i64
  %add.ptr33 = getelementptr inbounds i8, ptr %24, i64 %idx.ext32
  store ptr %add.ptr33, ptr %current31, align 8
  %current34 = getelementptr inbounds %"class.Imf_3_2::(anonymous namespace)::PtrIStream", ptr %this1, i32 0, i32 2
  %25 = load ptr, ptr %current34, align 8
  %end35 = getelementptr inbounds %"class.Imf_3_2::(anonymous namespace)::PtrIStream", ptr %this1, i32 0, i32 3
  %26 = load ptr, ptr %end35, align 8
  %cmp36 = icmp ne ptr %25, %26
  ret i1 %cmp36

eh.resume:                                        ; preds = %ehcleanup27, %ehcleanup
  %exn = load ptr, ptr %exn.slot, align 8
  %sel = load i32, ptr %ehselector.slot, align 4
  %lpad.val = insertvalue { ptr, i32 } poison, ptr %exn, 0
  %lpad.val37 = insertvalue { ptr, i32 } %lpad.val, i32 %sel, 1
  resume { ptr, i32 } %lpad.val37

unreachable:                                      ; preds = %invoke.cont25, %invoke.cont5
  unreachable
}