; Function Attrs: mustprogress uwtable
define internal noundef zeroext i1 @_ZN7Imf_3_212_GLOBAL__N_110PtrIStream4readEPci(ptr nocapture noundef nonnull align 8 dereferenceable(64) %this, ptr nocapture noundef writeonly %c, i32 noundef %n) unnamed_addr #3 align 2 personality ptr @__gxx_personality_v0 {
entry:
  %_iex_throw_s = alloca %"class.std::__cxx11::basic_stringstream", align 8
  %_iex_throw_s10 = alloca %"class.std::__cxx11::basic_stringstream", align 8
  %cmp = icmp slt i32 %n, 0
  br i1 %cmp, label %do.body, label %if.end

do.body:                                          ; preds = %entry
  tail call void @_Z13iex_debugTrapv()
  call void @_ZNSt7__cxx1118basic_stringstreamIcSt11char_traitsIcESaIcEEC1Ev(ptr noundef nonnull align 8 dereferenceable(128) %_iex_throw_s)
  %add.ptr = getelementptr inbounds i8, ptr %_iex_throw_s, i64 16
  %call = invoke noundef nonnull align 8 dereferenceable(8) ptr @_ZNSolsEi(ptr noundef nonnull align 8 dereferenceable(8) %add.ptr, i32 noundef %n)
          to label %invoke.cont unwind label %lpad

invoke.cont:                                      ; preds = %do.body
  %call3 = invoke noundef nonnull align 8 dereferenceable(8) ptr @_ZStlsISt11char_traitsIcEERSt13basic_ostreamIcT_ES5_PKc(ptr noundef nonnull align 8 dereferenceable(8) %call, ptr noundef nonnull @.str.14)
          to label %invoke.cont2 unwind label %lpad

invoke.cont2:                                     ; preds = %invoke.cont
  %exception = call ptr @__cxa_allocate_exception(i64 72) #22
  invoke void @_ZN7Iex_3_28InputExcC1ERNSt7__cxx1118basic_stringstreamIcSt11char_traitsIcESaIcEEE(ptr noundef nonnull align 8 dereferenceable(72) %exception, ptr noundef nonnull align 8 dereferenceable(128) %_iex_throw_s)
          to label %invoke.cont5 unwind label %lpad4

invoke.cont5:                                     ; preds = %invoke.cont2
  invoke void @__cxa_throw(ptr nonnull %exception, ptr nonnull @_ZTIN7Iex_3_28InputExcE, ptr nonnull @_ZN7Iex_3_28InputExcD1Ev) #25
          to label %unreachable unwind label %lpad

lpad:                                             ; preds = %invoke.cont5, %invoke.cont, %do.body
  %0 = landingpad { ptr, i32 }
          cleanup
  br label %eh.resume

lpad4:                                            ; preds = %invoke.cont2
  %1 = landingpad { ptr, i32 }
          cleanup
  call void @__cxa_free_exception(ptr %exception) #22
  br label %eh.resume

if.end:                                           ; preds = %entry
  %current = getelementptr inbounds i8, ptr %this, i64 48
  %2 = load ptr, ptr %current, align 8
  %idx.ext = zext nneg i32 %n to i64
  %add.ptr6 = getelementptr inbounds i8, ptr %2, i64 %idx.ext
  %end = getelementptr inbounds i8, ptr %this, i64 56
  %3 = load ptr, ptr %end, align 8
  %cmp7 = icmp ugt ptr %add.ptr6, %3
  br i1 %cmp7, label %do.body9, label %if.end29

do.body9:                                         ; preds = %if.end
  tail call void @_Z13iex_debugTrapv()
  call void @_ZNSt7__cxx1118basic_stringstreamIcSt11char_traitsIcESaIcEEC1Ev(ptr noundef nonnull align 8 dereferenceable(128) %_iex_throw_s10)
  %add.ptr11 = getelementptr inbounds i8, ptr %_iex_throw_s10, i64 16
  %call14 = invoke noundef nonnull align 8 dereferenceable(8) ptr @_ZStlsISt11char_traitsIcEERSt13basic_ostreamIcT_ES5_PKc(ptr noundef nonnull align 8 dereferenceable(8) %add.ptr11, ptr noundef nonnull @.str.15)
          to label %invoke.cont13 unwind label %lpad12

invoke.cont13:                                    ; preds = %do.body9
  %4 = load ptr, ptr %end, align 8
  %5 = load ptr, ptr %current, align 8
  %add.ptr18 = getelementptr inbounds i8, ptr %5, i64 %idx.ext
  %sub.ptr.lhs.cast = ptrtoint ptr %4 to i64
  %sub.ptr.rhs.cast = ptrtoint ptr %add.ptr18 to i64
  %sub.ptr.sub = sub i64 %sub.ptr.lhs.cast, %sub.ptr.rhs.cast
  %call20 = invoke noundef nonnull align 8 dereferenceable(8) ptr @_ZNSolsEl(ptr noundef nonnull align 8 dereferenceable(8) %call14, i64 noundef %sub.ptr.sub)
          to label %invoke.cont19 unwind label %lpad12

invoke.cont19:                                    ; preds = %invoke.cont13
  %call22 = invoke noundef nonnull align 8 dereferenceable(8) ptr @_ZStlsISt11char_traitsIcEERSt13basic_ostreamIcT_ES5_PKc(ptr noundef nonnull align 8 dereferenceable(8) %call20, ptr noundef nonnull @.str.16)
          to label %invoke.cont21 unwind label %lpad12

invoke.cont21:                                    ; preds = %invoke.cont19
  %exception23 = call ptr @__cxa_allocate_exception(i64 72) #22
  invoke void @_ZN7Iex_3_28InputExcC1ERNSt7__cxx1118basic_stringstreamIcSt11char_traitsIcESaIcEEE(ptr noundef nonnull align 8 dereferenceable(72) %exception23, ptr noundef nonnull align 8 dereferenceable(128) %_iex_throw_s10)
          to label %invoke.cont25 unwind label %lpad24

invoke.cont25:                                    ; preds = %invoke.cont21
  invoke void @__cxa_throw(ptr nonnull %exception23, ptr nonnull @_ZTIN7Iex_3_28InputExcE, ptr nonnull @_ZN7Iex_3_28InputExcD1Ev) #25
          to label %unreachable unwind label %lpad12

lpad12:                                           ; preds = %invoke.cont25, %invoke.cont19, %invoke.cont13, %do.body9
  %6 = landingpad { ptr, i32 }
          cleanup
  br label %eh.resume

lpad24:                                           ; preds = %invoke.cont21
  %7 = landingpad { ptr, i32 }
          cleanup
  call void @__cxa_free_exception(ptr %exception23) #22
  br label %eh.resume

if.end29:                                         ; preds = %if.end
  tail call void @llvm.memcpy.p0.p0.i64(ptr align 1 %c, ptr align 1 %2, i64 %idx.ext, i1 false)
  %8 = load ptr, ptr %current, align 8
  %add.ptr33 = getelementptr inbounds i8, ptr %8, i64 %idx.ext
  store ptr %add.ptr33, ptr %current, align 8
  %9 = load ptr, ptr %end, align 8
  %cmp36 = icmp ne ptr %add.ptr33, %9
  ret i1 %cmp36

eh.resume:                                        ; preds = %lpad12, %lpad24, %lpad, %lpad4
  %_iex_throw_s10.sink = phi ptr [ %_iex_throw_s, %lpad4 ], [ %_iex_throw_s, %lpad ], [ %_iex_throw_s10, %lpad24 ], [ %_iex_throw_s10, %lpad12 ]
  %.pn7.pn = phi { ptr, i32 } [ %1, %lpad4 ], [ %0, %lpad ], [ %7, %lpad24 ], [ %6, %lpad12 ]
  call void @_ZNSt7__cxx1118basic_stringstreamIcSt11char_traitsIcESaIcEED1Ev(ptr noundef nonnull align 8 dereferenceable(128) %_iex_throw_s10.sink) #22
  resume { ptr, i32 } %.pn7.pn

unreachable:                                      ; preds = %invoke.cont25, %invoke.cont5
  unreachable
}